; Function Attrs: nounwind uwtable
define range(i32 -2147483647, -2147483648) i32 @Gia_ManComputeOverlap2One_rec(ptr noundef %0, i32 noundef %1, ptr noundef %2, ptr noundef %3) local_unnamed_addr #4 {
  %5 = getelementptr i8, ptr %2, i64 8
  %.val22 = load ptr, ptr %5, align 8, !tbaa !73
  %6 = sext i32 %1 to i64
  %7 = getelementptr inbounds i8, ptr %.val22, i64 %6
  %8 = load i8, ptr %7, align 1, !tbaa !75
  %.not = icmp eq i8 %8, 0
  br i1 %.not, label %9, label %54

9:                                                ; preds = %4
  store i8 1, ptr %7, align 1, !tbaa !75
  %10 = getelementptr i8, ptr %0, i64 32
  %.val = load ptr, ptr %10, align 8, !tbaa !55
  %11 = getelementptr inbounds %struct.Gia_Obj_t_, ptr %.val, i64 %6
  %.val20 = load i64, ptr %11, align 4
  %12 = trunc i64 %.val20 to i32
  %13 = and i32 %12, 536870911
  %14 = sub nsw i32 %1, %13
  %15 = tail call i32 @Gia_ManComputeOverlap2One_rec(ptr noundef %0, i32 noundef %14, ptr noundef nonnull %2, ptr noundef %3)
  %.val21 = load i64, ptr %11, align 4
  %16 = lshr i64 %.val21, 32
  %17 = trunc nuw i64 %16 to i32
  %18 = and i32 %17, 536870911
  %19 = sub nsw i32 %1, %18
  %20 = tail call i32 @Gia_ManComputeOverlap2One_rec(ptr noundef %0, i32 noundef %19, ptr noundef nonnull %2, ptr noundef %3)
  %21 = getelementptr inbounds nuw i8, ptr %3, i64 4
  %22 = load i32, ptr %21, align 4, !tbaa !54
  %23 = load i32, ptr %3, align 8, !tbaa !76
  %24 = icmp eq i32 %22, %23
  br i1 %24, label %25, label %.Vec_IntGrow.exit10_crit_edge.i

.Vec_IntGrow.exit10_crit_edge.i:                  ; preds = %9
  %.phi.trans.insert.i = getelementptr inbounds nuw i8, ptr %3, i64 8
  %.pre.i = load ptr, ptr %.phi.trans.insert.i, align 8, !tbaa !47
  br label %Vec_IntPush.exit

25:                                               ; preds = %9
  %26 = icmp slt i32 %22, 16
  br i1 %26, label %27, label %35

27:                                               ; preds = %25
  %28 = getelementptr inbounds nuw i8, ptr %3, i64 8
  %29 = load ptr, ptr %28, align 8, !tbaa !47
  %.not9.i.i = icmp eq ptr %29, null
  br i1 %.not9.i.i, label %32, label %30

30:                                               ; preds = %27
  %31 = tail call dereferenceable_or_null(64) ptr @realloc(ptr noundef nonnull %29, i64 noundef 64) #28
  br label %Vec_IntGrow.exit.i

32:                                               ; preds = %27
  %33 = tail call noalias dereferenceable_or_null(64) ptr @malloc(i64 noundef 64) #29
  br label %Vec_IntGrow.exit.i

Vec_IntGrow.exit.i:                               ; preds = %32, %30
  %34 = phi ptr [ %31, %30 ], [ %33, %32 ]
  store ptr %34, ptr %28, align 8, !tbaa !47
  store i32 16, ptr %3, align 8, !tbaa !76
  br label %Vec_IntPush.exit

35:                                               ; preds = %25
  %36 = shl nuw nsw i32 %22, 1
  %37 = getelementptr inbounds nuw i8, ptr %3, i64 8
  %38 = load ptr, ptr %37, align 8, !tbaa !47
  %.not9.i9.i = icmp eq ptr %38, null
  %39 = zext nneg i32 %36 to i64
  %40 = shl nuw nsw i64 %39, 2
  br i1 %.not9.i9.i, label %43, label %41

41:                                               ; preds = %35
  %42 = tail call ptr @realloc(ptr noundef nonnull %38, i64 noundef %40) #28
  br label %45

43:                                               ; preds = %35
  %44 = tail call noalias ptr @malloc(i64 noundef %40) #29
  br label %45

45:                                               ; preds = %43, %41
  %46 = phi ptr [ %42, %41 ], [ %44, %43 ]
  store ptr %46, ptr %37, align 8, !tbaa !47
  store i32 %36, ptr %3, align 8, !tbaa !76
  br label %Vec_IntPush.exit

Vec_IntPush.exit:                                 ; preds = %.Vec_IntGrow.exit10_crit_edge.i, %Vec_IntGrow.exit.i, %45
  %47 = phi ptr [ %.pre.i, %.Vec_IntGrow.exit10_crit_edge.i ], [ %46, %45 ], [ %34, %Vec_IntGrow.exit.i ]
  %48 = load i32, ptr %21, align 4, !tbaa !54
  %49 = add nsw i32 %48, 1
  store i32 %49, ptr %21, align 4, !tbaa !54
  %50 = sext i32 %48 to i64
  %51 = getelementptr inbounds i32, ptr %47, i64 %50
  store i32 %1, ptr %51, align 4, !tbaa !48
  %52 = add i32 %15, 1
  %53 = add i32 %52, %20
  br label %54

54:                                               ; preds = %4, %Vec_IntPush.exit
  %.0 = phi i32 [ %53, %Vec_IntPush.exit ], [ 0, %4 ]
  ret i32 %.0
}